
Jpark259_Custom_Project.elf:     file format elf32-avr

Sections:
Idx Name          Size      VMA       LMA       File off  Algn
  0 .data         00000076  00800100  00000bca  00000c5e  2**0
                  CONTENTS, ALLOC, LOAD, DATA
  1 .text         00000bca  00000000  00000000  00000094  2**1
                  CONTENTS, ALLOC, LOAD, READONLY, CODE
  2 .bss          00000078  00800176  00800176  00000cd4  2**0
                  ALLOC
  3 .comment      00000030  00000000  00000000  00000cd4  2**0
                  CONTENTS, READONLY
  4 .note.gnu.avr.deviceinfo 00000040  00000000  00000000  00000d04  2**2
                  CONTENTS, READONLY
  5 .debug_aranges 000000d8  00000000  00000000  00000d44  2**0
                  CONTENTS, READONLY, DEBUGGING
  6 .debug_info   000015be  00000000  00000000  00000e1c  2**0
                  CONTENTS, READONLY, DEBUGGING
  7 .debug_abbrev 00000a46  00000000  00000000  000023da  2**0
                  CONTENTS, READONLY, DEBUGGING
  8 .debug_line   00000be4  00000000  00000000  00002e20  2**0
                  CONTENTS, READONLY, DEBUGGING
  9 .debug_frame  00000210  00000000  00000000  00003a04  2**2
                  CONTENTS, READONLY, DEBUGGING
 10 .debug_str    000007a9  00000000  00000000  00003c14  2**0
                  CONTENTS, READONLY, DEBUGGING
 11 .debug_loc    000009aa  00000000  00000000  000043bd  2**0
                  CONTENTS, READONLY, DEBUGGING
 12 .debug_ranges 000000c8  00000000  00000000  00004d67  2**0
                  CONTENTS, READONLY, DEBUGGING

Disassembly of section .text:

00000000 <__vectors>:
   0:	45 c0       	rjmp	.+138    	; 0x8c <__ctors_end>
   2:	00 00       	nop
   4:	60 c0       	rjmp	.+192    	; 0xc6 <__bad_interrupt>
   6:	00 00       	nop
   8:	5e c0       	rjmp	.+188    	; 0xc6 <__bad_interrupt>
   a:	00 00       	nop
   c:	5c c0       	rjmp	.+184    	; 0xc6 <__bad_interrupt>
   e:	00 00       	nop
  10:	5a c0       	rjmp	.+180    	; 0xc6 <__bad_interrupt>
  12:	00 00       	nop
  14:	58 c0       	rjmp	.+176    	; 0xc6 <__bad_interrupt>
  16:	00 00       	nop
  18:	56 c0       	rjmp	.+172    	; 0xc6 <__bad_interrupt>
  1a:	00 00       	nop
  1c:	54 c0       	rjmp	.+168    	; 0xc6 <__bad_interrupt>
  1e:	00 00       	nop
  20:	52 c0       	rjmp	.+164    	; 0xc6 <__bad_interrupt>
  22:	00 00       	nop
  24:	50 c0       	rjmp	.+160    	; 0xc6 <__bad_interrupt>
  26:	00 00       	nop
  28:	4e c0       	rjmp	.+156    	; 0xc6 <__bad_interrupt>
  2a:	00 00       	nop
  2c:	4c c0       	rjmp	.+152    	; 0xc6 <__bad_interrupt>
  2e:	00 00       	nop
  30:	4a c0       	rjmp	.+148    	; 0xc6 <__bad_interrupt>
  32:	00 00       	nop
  34:	53 c1       	rjmp	.+678    	; 0x2dc <__vector_13>
  36:	00 00       	nop
  38:	46 c0       	rjmp	.+140    	; 0xc6 <__bad_interrupt>
  3a:	00 00       	nop
  3c:	44 c0       	rjmp	.+136    	; 0xc6 <__bad_interrupt>
  3e:	00 00       	nop
  40:	42 c0       	rjmp	.+132    	; 0xc6 <__bad_interrupt>
  42:	00 00       	nop
  44:	40 c0       	rjmp	.+128    	; 0xc6 <__bad_interrupt>
  46:	00 00       	nop
  48:	3e c0       	rjmp	.+124    	; 0xc6 <__bad_interrupt>
  4a:	00 00       	nop
  4c:	3c c0       	rjmp	.+120    	; 0xc6 <__bad_interrupt>
  4e:	00 00       	nop
  50:	3a c0       	rjmp	.+116    	; 0xc6 <__bad_interrupt>
  52:	00 00       	nop
  54:	38 c0       	rjmp	.+112    	; 0xc6 <__bad_interrupt>
  56:	00 00       	nop
  58:	36 c0       	rjmp	.+108    	; 0xc6 <__bad_interrupt>
  5a:	00 00       	nop
  5c:	34 c0       	rjmp	.+104    	; 0xc6 <__bad_interrupt>
  5e:	00 00       	nop
  60:	32 c0       	rjmp	.+100    	; 0xc6 <__bad_interrupt>
  62:	00 00       	nop
  64:	30 c0       	rjmp	.+96     	; 0xc6 <__bad_interrupt>
  66:	00 00       	nop
  68:	2e c0       	rjmp	.+92     	; 0xc6 <__bad_interrupt>
  6a:	00 00       	nop
  6c:	2c c0       	rjmp	.+88     	; 0xc6 <__bad_interrupt>
  6e:	00 00       	nop
  70:	2a c0       	rjmp	.+84     	; 0xc6 <__bad_interrupt>
  72:	00 00       	nop
  74:	28 c0       	rjmp	.+80     	; 0xc6 <__bad_interrupt>
  76:	00 00       	nop
  78:	26 c0       	rjmp	.+76     	; 0xc6 <__bad_interrupt>
  7a:	00 00       	nop
  7c:	24 c0       	rjmp	.+72     	; 0xc6 <__bad_interrupt>
  7e:	00 00       	nop
  80:	22 c0       	rjmp	.+68     	; 0xc6 <__bad_interrupt>
  82:	00 00       	nop
  84:	20 c0       	rjmp	.+64     	; 0xc6 <__bad_interrupt>
  86:	00 00       	nop
  88:	1e c0       	rjmp	.+60     	; 0xc6 <__bad_interrupt>
	...

0000008c <__ctors_end>:
  8c:	11 24       	eor	r1, r1
  8e:	1f be       	out	0x3f, r1	; 63
  90:	cf ef       	ldi	r28, 0xFF	; 255
  92:	d0 e4       	ldi	r29, 0x40	; 64
  94:	de bf       	out	0x3e, r29	; 62
  96:	cd bf       	out	0x3d, r28	; 61

00000098 <__do_copy_data>:
  98:	11 e0       	ldi	r17, 0x01	; 1
  9a:	a0 e0       	ldi	r26, 0x00	; 0
  9c:	b1 e0       	ldi	r27, 0x01	; 1
  9e:	ea ec       	ldi	r30, 0xCA	; 202
  a0:	fb e0       	ldi	r31, 0x0B	; 11
  a2:	00 e0       	ldi	r16, 0x00	; 0
  a4:	0b bf       	out	0x3b, r16	; 59
  a6:	02 c0       	rjmp	.+4      	; 0xac <__do_copy_data+0x14>
  a8:	07 90       	elpm	r0, Z+
  aa:	0d 92       	st	X+, r0
  ac:	a6 37       	cpi	r26, 0x76	; 118
  ae:	b1 07       	cpc	r27, r17
  b0:	d9 f7       	brne	.-10     	; 0xa8 <__do_copy_data+0x10>

000000b2 <__do_clear_bss>:
  b2:	21 e0       	ldi	r18, 0x01	; 1
  b4:	a6 e7       	ldi	r26, 0x76	; 118
  b6:	b1 e0       	ldi	r27, 0x01	; 1
  b8:	01 c0       	rjmp	.+2      	; 0xbc <.do_clear_bss_start>

000000ba <.do_clear_bss_loop>:
  ba:	1d 92       	st	X+, r1

000000bc <.do_clear_bss_start>:
  bc:	ae 3e       	cpi	r26, 0xEE	; 238
  be:	b2 07       	cpc	r27, r18
  c0:	e1 f7       	brne	.-8      	; 0xba <.do_clear_bss_loop>
  c2:	cb d3       	rcall	.+1942   	; 0x85a <main>
  c4:	80 c5       	rjmp	.+2816   	; 0xbc6 <_exit>

000000c6 <__bad_interrupt>:
  c6:	9c cf       	rjmp	.-200    	; 0x0 <__vectors>

000000c8 <time>:
  c8:	fc 01       	movw	r30, r24
  ca:	0f b6       	in	r0, 0x3f	; 63
  cc:	f8 94       	cli
  ce:	60 91 ea 01 	lds	r22, 0x01EA	; 0x8001ea <__system_time>
  d2:	70 91 eb 01 	lds	r23, 0x01EB	; 0x8001eb <__system_time+0x1>
  d6:	80 91 ec 01 	lds	r24, 0x01EC	; 0x8001ec <__system_time+0x2>
  da:	90 91 ed 01 	lds	r25, 0x01ED	; 0x8001ed <__system_time+0x3>
  de:	0f be       	out	0x3f, r0	; 63
  e0:	30 97       	sbiw	r30, 0x00	; 0
  e2:	21 f0       	breq	.+8      	; 0xec <time+0x24>
  e4:	60 83       	st	Z, r22
  e6:	71 83       	std	Z+1, r23	; 0x01
  e8:	82 83       	std	Z+2, r24	; 0x02
  ea:	93 83       	std	Z+3, r25	; 0x03
  ec:	08 95       	ret

000000ee <food_tick>:
		if(c==0){return b;}
		a = b;
		b = c;
	}
	return 0;
}
  ee:	cf 93       	push	r28
  f0:	df 93       	push	r29
  f2:	ec 01       	movw	r28, r24
  f4:	00 97       	sbiw	r24, 0x00	; 0
  f6:	19 f0       	breq	.+6      	; 0xfe <food_tick+0x10>
  f8:	01 97       	sbiw	r24, 0x01	; 1
  fa:	59 f0       	breq	.+22     	; 0x112 <food_tick+0x24>
  fc:	4a c0       	rjmp	.+148    	; 0x192 <food_tick+0xa4>
  fe:	91 e0       	ldi	r25, 0x01	; 1
 100:	80 e0       	ldi	r24, 0x00	; 0
 102:	20 91 c2 01 	lds	r18, 0x01C2	; 0x8001c2 <foodout>
 106:	21 11       	cpse	r18, r1
 108:	01 c0       	rjmp	.+2      	; 0x10c <food_tick+0x1e>
 10a:	90 e0       	ldi	r25, 0x00	; 0
 10c:	c9 2f       	mov	r28, r25
 10e:	d8 2f       	mov	r29, r24
 110:	40 c0       	rjmp	.+128    	; 0x192 <food_tick+0xa4>
 112:	01 d5       	rcall	.+2562   	; 0xb16 <rand>
 114:	83 70       	andi	r24, 0x03	; 3
 116:	99 27       	eor	r25, r25
 118:	89 2b       	or	r24, r25
 11a:	91 f4       	brne	.+36     	; 0x140 <food_tick+0x52>
 11c:	80 91 c2 01 	lds	r24, 0x01C2	; 0x8001c2 <foodout>
 120:	81 30       	cpi	r24, 0x01	; 1
 122:	71 f4       	brne	.+28     	; 0x140 <food_tick+0x52>
 124:	80 91 04 01 	lds	r24, 0x0104	; 0x800104 <foodtotal>
 128:	8e 30       	cpi	r24, 0x0E	; 14
 12a:	51 f0       	breq	.+20     	; 0x140 <food_tick+0x52>
 12c:	e8 2f       	mov	r30, r24
 12e:	f0 e0       	ldi	r31, 0x00	; 0
 130:	e1 55       	subi	r30, 0x51	; 81
 132:	fe 4f       	sbci	r31, 0xFE	; 254
 134:	90 e1       	ldi	r25, 0x10	; 16
 136:	90 83       	st	Z, r25
 138:	8f 5f       	subi	r24, 0xFF	; 255
 13a:	80 93 04 01 	sts	0x0104, r24	; 0x800104 <foodtotal>
 13e:	36 c0       	rjmp	.+108    	; 0x1ac <food_tick+0xbe>
 140:	ea d4       	rcall	.+2516   	; 0xb16 <rand>
 142:	83 70       	andi	r24, 0x03	; 3
 144:	90 78       	andi	r25, 0x80	; 128
 146:	99 23       	and	r25, r25
 148:	24 f4       	brge	.+8      	; 0x152 <food_tick+0x64>
 14a:	01 97       	sbiw	r24, 0x01	; 1
 14c:	8c 6f       	ori	r24, 0xFC	; 252
 14e:	9f 6f       	ori	r25, 0xFF	; 255
 150:	01 96       	adiw	r24, 0x01	; 1
 152:	01 97       	sbiw	r24, 0x01	; 1
 154:	91 f4       	brne	.+36     	; 0x17a <food_tick+0x8c>
 156:	80 91 c2 01 	lds	r24, 0x01C2	; 0x8001c2 <foodout>
 15a:	81 30       	cpi	r24, 0x01	; 1
 15c:	71 f4       	brne	.+28     	; 0x17a <food_tick+0x8c>
 15e:	80 91 04 01 	lds	r24, 0x0104	; 0x800104 <foodtotal>
 162:	8e 30       	cpi	r24, 0x0E	; 14
 164:	19 f1       	breq	.+70     	; 0x1ac <food_tick+0xbe>
 166:	e8 2f       	mov	r30, r24
 168:	f0 e0       	ldi	r31, 0x00	; 0
 16a:	e1 55       	subi	r30, 0x51	; 81
 16c:	fe 4f       	sbci	r31, 0xFE	; 254
 16e:	90 e2       	ldi	r25, 0x20	; 32
 170:	90 83       	st	Z, r25
 172:	8f 5f       	subi	r24, 0xFF	; 255
 174:	80 93 04 01 	sts	0x0104, r24	; 0x800104 <foodtotal>
 178:	19 c0       	rjmp	.+50     	; 0x1ac <food_tick+0xbe>
 17a:	80 91 c2 01 	lds	r24, 0x01C2	; 0x8001c2 <foodout>
 17e:	88 23       	and	r24, r24
 180:	81 f0       	breq	.+32     	; 0x1a2 <food_tick+0xb4>
 182:	14 c0       	rjmp	.+40     	; 0x1ac <food_tick+0xbe>
 184:	80 81       	ld	r24, Z
 186:	81 50       	subi	r24, 0x01	; 1
 188:	81 93       	st	Z+, r24
 18a:	2e 17       	cp	r18, r30
 18c:	3f 07       	cpc	r19, r31
 18e:	d1 f7       	brne	.-12     	; 0x184 <food_tick+0x96>
 190:	12 c0       	rjmp	.+36     	; 0x1b6 <food_tick+0xc8>
 192:	20 97       	sbiw	r28, 0x00	; 0
 194:	31 f0       	breq	.+12     	; 0x1a2 <food_tick+0xb4>
 196:	c1 30       	cpi	r28, 0x01	; 1
 198:	d1 05       	cpc	r29, r1
 19a:	69 f0       	breq	.+26     	; 0x1b6 <food_tick+0xc8>
 19c:	c0 e0       	ldi	r28, 0x00	; 0
 19e:	d0 e0       	ldi	r29, 0x00	; 0
 1a0:	0a c0       	rjmp	.+20     	; 0x1b6 <food_tick+0xc8>
 1a2:	10 92 04 01 	sts	0x0104, r1	; 0x800104 <foodtotal>
 1a6:	c0 e0       	ldi	r28, 0x00	; 0
 1a8:	d0 e0       	ldi	r29, 0x00	; 0
 1aa:	05 c0       	rjmp	.+10     	; 0x1b6 <food_tick+0xc8>
 1ac:	ef ea       	ldi	r30, 0xAF	; 175
 1ae:	f1 e0       	ldi	r31, 0x01	; 1
 1b0:	2e eb       	ldi	r18, 0xBE	; 190
 1b2:	31 e0       	ldi	r19, 0x01	; 1
 1b4:	e7 cf       	rjmp	.-50     	; 0x184 <food_tick+0x96>
 1b6:	ce 01       	movw	r24, r28
 1b8:	df 91       	pop	r29
 1ba:	cf 91       	pop	r28
 1bc:	08 95       	ret

000001be <LED_tick>:
 1be:	00 97       	sbiw	r24, 0x00	; 0
 1c0:	29 f0       	breq	.+10     	; 0x1cc <LED_tick+0xe>
 1c2:	3c f1       	brlt	.+78     	; 0x212 <LED_tick+0x54>
 1c4:	86 30       	cpi	r24, 0x06	; 6
 1c6:	91 05       	cpc	r25, r1
 1c8:	a4 f1       	brlt	.+104    	; 0x232 <LED_tick+0x74>
 1ca:	23 c0       	rjmp	.+70     	; 0x212 <LED_tick+0x54>
 1cc:	80 91 c1 01 	lds	r24, 0x01C1	; 0x8001c1 <led_bool>
 1d0:	81 30       	cpi	r24, 0x01	; 1
 1d2:	79 f5       	brne	.+94     	; 0x232 <LED_tick+0x74>
 1d4:	a0 d4       	rcall	.+2368   	; 0xb16 <rand>
 1d6:	65 e0       	ldi	r22, 0x05	; 5
 1d8:	70 e0       	ldi	r23, 0x00	; 0
 1da:	0d d4       	rcall	.+2074   	; 0x9f6 <__divmodhi4>
 1dc:	89 2b       	or	r24, r25
 1de:	69 f1       	breq	.+90     	; 0x23a <LED_tick+0x7c>
 1e0:	9a d4       	rcall	.+2356   	; 0xb16 <rand>
 1e2:	65 e0       	ldi	r22, 0x05	; 5
 1e4:	70 e0       	ldi	r23, 0x00	; 0
 1e6:	07 d4       	rcall	.+2062   	; 0x9f6 <__divmodhi4>
 1e8:	01 97       	sbiw	r24, 0x01	; 1
 1ea:	61 f1       	breq	.+88     	; 0x244 <LED_tick+0x86>
 1ec:	94 d4       	rcall	.+2344   	; 0xb16 <rand>
 1ee:	65 e0       	ldi	r22, 0x05	; 5
 1f0:	70 e0       	ldi	r23, 0x00	; 0
 1f2:	01 d4       	rcall	.+2050   	; 0x9f6 <__divmodhi4>
 1f4:	02 97       	sbiw	r24, 0x02	; 2
 1f6:	59 f1       	breq	.+86     	; 0x24e <LED_tick+0x90>
 1f8:	8e d4       	rcall	.+2332   	; 0xb16 <rand>
 1fa:	65 e0       	ldi	r22, 0x05	; 5
 1fc:	70 e0       	ldi	r23, 0x00	; 0
 1fe:	fb d3       	rcall	.+2038   	; 0x9f6 <__divmodhi4>
 200:	03 97       	sbiw	r24, 0x03	; 3
 202:	51 f1       	breq	.+84     	; 0x258 <LED_tick+0x9a>
 204:	88 d4       	rcall	.+2320   	; 0xb16 <rand>
 206:	65 e0       	ldi	r22, 0x05	; 5
 208:	70 e0       	ldi	r23, 0x00	; 0
 20a:	f5 d3       	rcall	.+2026   	; 0x9f6 <__divmodhi4>
 20c:	04 97       	sbiw	r24, 0x04	; 4
 20e:	89 f4       	brne	.+34     	; 0x232 <LED_tick+0x74>
 210:	28 c0       	rjmp	.+80     	; 0x262 <LED_tick+0xa4>
 212:	82 30       	cpi	r24, 0x02	; 2
 214:	91 05       	cpc	r25, r1
 216:	b1 f0       	breq	.+44     	; 0x244 <LED_tick+0x86>
 218:	2c f4       	brge	.+10     	; 0x224 <LED_tick+0x66>
 21a:	00 97       	sbiw	r24, 0x00	; 0
 21c:	51 f0       	breq	.+20     	; 0x232 <LED_tick+0x74>
 21e:	01 97       	sbiw	r24, 0x01	; 1
 220:	61 f0       	breq	.+24     	; 0x23a <LED_tick+0x7c>
 222:	24 c0       	rjmp	.+72     	; 0x26c <LED_tick+0xae>
 224:	84 30       	cpi	r24, 0x04	; 4
 226:	91 05       	cpc	r25, r1
 228:	b9 f0       	breq	.+46     	; 0x258 <LED_tick+0x9a>
 22a:	8c f0       	brlt	.+34     	; 0x24e <LED_tick+0x90>
 22c:	05 97       	sbiw	r24, 0x05	; 5
 22e:	c9 f0       	breq	.+50     	; 0x262 <LED_tick+0xa4>
 230:	1d c0       	rjmp	.+58     	; 0x26c <LED_tick+0xae>
 232:	15 b8       	out	0x05, r1	; 5
 234:	80 e0       	ldi	r24, 0x00	; 0
 236:	90 e0       	ldi	r25, 0x00	; 0
 238:	08 95       	ret
 23a:	81 e0       	ldi	r24, 0x01	; 1
 23c:	85 b9       	out	0x05, r24	; 5
 23e:	81 e0       	ldi	r24, 0x01	; 1
 240:	90 e0       	ldi	r25, 0x00	; 0
 242:	08 95       	ret
 244:	82 e0       	ldi	r24, 0x02	; 2
 246:	85 b9       	out	0x05, r24	; 5
 248:	82 e0       	ldi	r24, 0x02	; 2
 24a:	90 e0       	ldi	r25, 0x00	; 0
 24c:	08 95       	ret
 24e:	84 e0       	ldi	r24, 0x04	; 4
 250:	85 b9       	out	0x05, r24	; 5
 252:	83 e0       	ldi	r24, 0x03	; 3
 254:	90 e0       	ldi	r25, 0x00	; 0
 256:	08 95       	ret
 258:	88 e0       	ldi	r24, 0x08	; 8
 25a:	85 b9       	out	0x05, r24	; 5
 25c:	84 e0       	ldi	r24, 0x04	; 4
 25e:	90 e0       	ldi	r25, 0x00	; 0
 260:	08 95       	ret
 262:	80 e1       	ldi	r24, 0x10	; 16
 264:	85 b9       	out	0x05, r24	; 5
 266:	85 e0       	ldi	r24, 0x05	; 5
 268:	90 e0       	ldi	r25, 0x00	; 0
 26a:	08 95       	ret
 26c:	80 e0       	ldi	r24, 0x00	; 0
 26e:	90 e0       	ldi	r25, 0x00	; 0
 270:	08 95       	ret

00000272 <TimerSet>:
 272:	60 93 2f 01 	sts	0x012F, r22	; 0x80012f <_avr_timer_M>
 276:	70 93 30 01 	sts	0x0130, r23	; 0x800130 <_avr_timer_M+0x1>
 27a:	80 93 31 01 	sts	0x0131, r24	; 0x800131 <_avr_timer_M+0x2>
 27e:	90 93 32 01 	sts	0x0132, r25	; 0x800132 <_avr_timer_M+0x3>
 282:	60 93 c9 01 	sts	0x01C9, r22	; 0x8001c9 <_avr_timer_cntcurr>
 286:	70 93 ca 01 	sts	0x01CA, r23	; 0x8001ca <_avr_timer_cntcurr+0x1>
 28a:	80 93 cb 01 	sts	0x01CB, r24	; 0x8001cb <_avr_timer_cntcurr+0x2>
 28e:	90 93 cc 01 	sts	0x01CC, r25	; 0x8001cc <_avr_timer_cntcurr+0x3>
 292:	08 95       	ret

00000294 <TimerOn>:
 294:	8b e0       	ldi	r24, 0x0B	; 11
 296:	80 93 81 00 	sts	0x0081, r24	; 0x800081 <__TEXT_REGION_LENGTH__+0x7e0081>
 29a:	8d e7       	ldi	r24, 0x7D	; 125
 29c:	90 e0       	ldi	r25, 0x00	; 0
 29e:	90 93 89 00 	sts	0x0089, r25	; 0x800089 <__TEXT_REGION_LENGTH__+0x7e0089>
 2a2:	80 93 88 00 	sts	0x0088, r24	; 0x800088 <__TEXT_REGION_LENGTH__+0x7e0088>
 2a6:	82 e0       	ldi	r24, 0x02	; 2
 2a8:	80 93 6f 00 	sts	0x006F, r24	; 0x80006f <__TEXT_REGION_LENGTH__+0x7e006f>
 2ac:	10 92 85 00 	sts	0x0085, r1	; 0x800085 <__TEXT_REGION_LENGTH__+0x7e0085>
 2b0:	10 92 84 00 	sts	0x0084, r1	; 0x800084 <__TEXT_REGION_LENGTH__+0x7e0084>
 2b4:	80 91 2f 01 	lds	r24, 0x012F	; 0x80012f <_avr_timer_M>
 2b8:	90 91 30 01 	lds	r25, 0x0130	; 0x800130 <_avr_timer_M+0x1>
 2bc:	a0 91 31 01 	lds	r26, 0x0131	; 0x800131 <_avr_timer_M+0x2>
 2c0:	b0 91 32 01 	lds	r27, 0x0132	; 0x800132 <_avr_timer_M+0x3>
 2c4:	80 93 c9 01 	sts	0x01C9, r24	; 0x8001c9 <_avr_timer_cntcurr>
 2c8:	90 93 ca 01 	sts	0x01CA, r25	; 0x8001ca <_avr_timer_cntcurr+0x1>
 2cc:	a0 93 cb 01 	sts	0x01CB, r26	; 0x8001cb <_avr_timer_cntcurr+0x2>
 2d0:	b0 93 cc 01 	sts	0x01CC, r27	; 0x8001cc <_avr_timer_cntcurr+0x3>
 2d4:	8f b7       	in	r24, 0x3f	; 63
 2d6:	80 68       	ori	r24, 0x80	; 128
 2d8:	8f bf       	out	0x3f, r24	; 63
 2da:	08 95       	ret

000002dc <__vector_13>:
 2dc:	1f 92       	push	r1
 2de:	0f 92       	push	r0
 2e0:	0f b6       	in	r0, 0x3f	; 63
 2e2:	0f 92       	push	r0
 2e4:	11 24       	eor	r1, r1
 2e6:	8f 93       	push	r24
 2e8:	9f 93       	push	r25
 2ea:	af 93       	push	r26
 2ec:	bf 93       	push	r27
 2ee:	80 91 c9 01 	lds	r24, 0x01C9	; 0x8001c9 <_avr_timer_cntcurr>
 2f2:	90 91 ca 01 	lds	r25, 0x01CA	; 0x8001ca <_avr_timer_cntcurr+0x1>
 2f6:	a0 91 cb 01 	lds	r26, 0x01CB	; 0x8001cb <_avr_timer_cntcurr+0x2>
 2fa:	b0 91 cc 01 	lds	r27, 0x01CC	; 0x8001cc <_avr_timer_cntcurr+0x3>
 2fe:	01 97       	sbiw	r24, 0x01	; 1
 300:	a1 09       	sbc	r26, r1
 302:	b1 09       	sbc	r27, r1
 304:	80 93 c9 01 	sts	0x01C9, r24	; 0x8001c9 <_avr_timer_cntcurr>
 308:	90 93 ca 01 	sts	0x01CA, r25	; 0x8001ca <_avr_timer_cntcurr+0x1>
 30c:	a0 93 cb 01 	sts	0x01CB, r26	; 0x8001cb <_avr_timer_cntcurr+0x2>
 310:	b0 93 cc 01 	sts	0x01CC, r27	; 0x8001cc <_avr_timer_cntcurr+0x3>
 314:	89 2b       	or	r24, r25
 316:	8a 2b       	or	r24, r26
 318:	8b 2b       	or	r24, r27
 31a:	99 f4       	brne	.+38     	; 0x342 <__vector_13+0x66>
 31c:	81 e0       	ldi	r24, 0x01	; 1
 31e:	80 93 cd 01 	sts	0x01CD, r24	; 0x8001cd <TimerFlag>
 322:	80 91 2f 01 	lds	r24, 0x012F	; 0x80012f <_avr_timer_M>
 326:	90 91 30 01 	lds	r25, 0x0130	; 0x800130 <_avr_timer_M+0x1>
 32a:	a0 91 31 01 	lds	r26, 0x0131	; 0x800131 <_avr_timer_M+0x2>
 32e:	b0 91 32 01 	lds	r27, 0x0132	; 0x800132 <_avr_timer_M+0x3>
 332:	80 93 c9 01 	sts	0x01C9, r24	; 0x8001c9 <_avr_timer_cntcurr>
 336:	90 93 ca 01 	sts	0x01CA, r25	; 0x8001ca <_avr_timer_cntcurr+0x1>
 33a:	a0 93 cb 01 	sts	0x01CB, r26	; 0x8001cb <_avr_timer_cntcurr+0x2>
 33e:	b0 93 cc 01 	sts	0x01CC, r27	; 0x8001cc <_avr_timer_cntcurr+0x3>
 342:	bf 91       	pop	r27
 344:	af 91       	pop	r26
 346:	9f 91       	pop	r25
 348:	8f 91       	pop	r24
 34a:	0f 90       	pop	r0
 34c:	0f be       	out	0x3f, r0	; 63
 34e:	0f 90       	pop	r0
 350:	1f 90       	pop	r1
 352:	18 95       	reti

00000354 <delay_ms>:
 354:	18 16       	cp	r1, r24
 356:	19 06       	cpc	r1, r25
 358:	5c f0       	brlt	.+22     	; 0x370 <delay_ms+0x1c>
 35a:	08 95       	ret
 35c:	00 00       	nop
 35e:	21 50       	subi	r18, 0x01	; 1
 360:	31 09       	sbc	r19, r1
 362:	e1 f7       	brne	.-8      	; 0x35c <delay_ms+0x8>
 364:	4f 5f       	subi	r20, 0xFF	; 255
 366:	5f 4f       	sbci	r21, 0xFF	; 255
 368:	84 17       	cp	r24, r20
 36a:	95 07       	cpc	r25, r21
 36c:	19 f4       	brne	.+6      	; 0x374 <delay_ms+0x20>
 36e:	08 95       	ret
 370:	40 e0       	ldi	r20, 0x00	; 0
 372:	50 e0       	ldi	r21, 0x00	; 0
 374:	27 e0       	ldi	r18, 0x07	; 7
 376:	33 e0       	ldi	r19, 0x03	; 3
 378:	f1 cf       	rjmp	.-30     	; 0x35c <delay_ms+0x8>

0000037a <LCD_WriteCommand>:
 37a:	10 98       	cbi	0x02, 0	; 2
 37c:	8b b9       	out	0x0b, r24	; 11
 37e:	11 9a       	sbi	0x02, 1	; 2
 380:	00 00       	nop
 382:	11 98       	cbi	0x02, 1	; 2
 384:	82 e0       	ldi	r24, 0x02	; 2
 386:	90 e0       	ldi	r25, 0x00	; 0
 388:	e5 cf       	rjmp	.-54     	; 0x354 <delay_ms>
 38a:	08 95       	ret

0000038c <LCD_ClearScreen>:
 38c:	81 e0       	ldi	r24, 0x01	; 1
 38e:	f5 cf       	rjmp	.-22     	; 0x37a <LCD_WriteCommand>
 390:	08 95       	ret

00000392 <LCD_Cursor>:
 392:	81 31       	cpi	r24, 0x11	; 17
 394:	18 f4       	brcc	.+6      	; 0x39c <LCD_Cursor+0xa>
 396:	81 58       	subi	r24, 0x81	; 129
 398:	f0 cf       	rjmp	.-32     	; 0x37a <LCD_WriteCommand>
 39a:	08 95       	ret
 39c:	81 55       	subi	r24, 0x51	; 81
 39e:	ed cf       	rjmp	.-38     	; 0x37a <LCD_WriteCommand>
 3a0:	08 95       	ret

000003a2 <LCD_init>:
 3a2:	84 e6       	ldi	r24, 0x64	; 100
 3a4:	90 e0       	ldi	r25, 0x00	; 0
 3a6:	d6 df       	rcall	.-84     	; 0x354 <delay_ms>
 3a8:	88 e3       	ldi	r24, 0x38	; 56
 3aa:	e7 df       	rcall	.-50     	; 0x37a <LCD_WriteCommand>
 3ac:	86 e0       	ldi	r24, 0x06	; 6
 3ae:	e5 df       	rcall	.-54     	; 0x37a <LCD_WriteCommand>
 3b0:	8f e0       	ldi	r24, 0x0F	; 15
 3b2:	e3 df       	rcall	.-58     	; 0x37a <LCD_WriteCommand>
 3b4:	81 e0       	ldi	r24, 0x01	; 1
 3b6:	e1 df       	rcall	.-62     	; 0x37a <LCD_WriteCommand>
 3b8:	8a e0       	ldi	r24, 0x0A	; 10
 3ba:	90 e0       	ldi	r25, 0x00	; 0
 3bc:	cb cf       	rjmp	.-106    	; 0x354 <delay_ms>
 3be:	08 95       	ret

000003c0 <LCD_WriteData>:
 3c0:	10 9a       	sbi	0x02, 0	; 2
 3c2:	8b b9       	out	0x0b, r24	; 11
 3c4:	11 9a       	sbi	0x02, 1	; 2
 3c6:	00 00       	nop
 3c8:	11 98       	cbi	0x02, 1	; 2
 3ca:	81 e0       	ldi	r24, 0x01	; 1
 3cc:	90 e0       	ldi	r25, 0x00	; 0
 3ce:	c2 cf       	rjmp	.-124    	; 0x354 <delay_ms>
 3d0:	08 95       	ret

000003d2 <LCD_build>:
 3d2:	88 e4       	ldi	r24, 0x48	; 72
 3d4:	d2 df       	rcall	.-92     	; 0x37a <LCD_WriteCommand>
 3d6:	84 e0       	ldi	r24, 0x04	; 4
 3d8:	90 e0       	ldi	r25, 0x00	; 0
 3da:	f2 df       	rcall	.-28     	; 0x3c0 <LCD_WriteData>
 3dc:	8e e0       	ldi	r24, 0x0E	; 14
 3de:	90 e0       	ldi	r25, 0x00	; 0
 3e0:	ef df       	rcall	.-34     	; 0x3c0 <LCD_WriteData>
 3e2:	8e e0       	ldi	r24, 0x0E	; 14
 3e4:	90 e0       	ldi	r25, 0x00	; 0
 3e6:	ec df       	rcall	.-40     	; 0x3c0 <LCD_WriteData>
 3e8:	8e e0       	ldi	r24, 0x0E	; 14
 3ea:	90 e0       	ldi	r25, 0x00	; 0
 3ec:	e9 df       	rcall	.-46     	; 0x3c0 <LCD_WriteData>
 3ee:	8f e1       	ldi	r24, 0x1F	; 31
 3f0:	90 e0       	ldi	r25, 0x00	; 0
 3f2:	e6 df       	rcall	.-52     	; 0x3c0 <LCD_WriteData>
 3f4:	80 e0       	ldi	r24, 0x00	; 0
 3f6:	90 e0       	ldi	r25, 0x00	; 0
 3f8:	e3 df       	rcall	.-58     	; 0x3c0 <LCD_WriteData>
 3fa:	84 e0       	ldi	r24, 0x04	; 4
 3fc:	90 e0       	ldi	r25, 0x00	; 0
 3fe:	e0 df       	rcall	.-64     	; 0x3c0 <LCD_WriteData>
 400:	80 e0       	ldi	r24, 0x00	; 0
 402:	90 e0       	ldi	r25, 0x00	; 0
 404:	dd cf       	rjmp	.-70     	; 0x3c0 <LCD_WriteData>
 406:	08 95       	ret

00000408 <LCD_DisplayString>:
 408:	0f 93       	push	r16
 40a:	1f 93       	push	r17
 40c:	cf 93       	push	r28
 40e:	df 93       	push	r29
 410:	18 2f       	mov	r17, r24
 412:	eb 01       	movw	r28, r22
 414:	bb df       	rcall	.-138    	; 0x38c <LCD_ClearScreen>
 416:	88 81       	ld	r24, Y
 418:	88 23       	and	r24, r24
 41a:	51 f0       	breq	.+20     	; 0x430 <LCD_DisplayString+0x28>
 41c:	01 e0       	ldi	r16, 0x01	; 1
 41e:	01 0f       	add	r16, r17
 420:	81 2f       	mov	r24, r17
 422:	b7 df       	rcall	.-146    	; 0x392 <LCD_Cursor>
 424:	89 91       	ld	r24, Y+
 426:	cc df       	rcall	.-104    	; 0x3c0 <LCD_WriteData>
 428:	10 2f       	mov	r17, r16
 42a:	88 81       	ld	r24, Y
 42c:	81 11       	cpse	r24, r1
 42e:	f6 cf       	rjmp	.-20     	; 0x41c <LCD_DisplayString+0x14>
 430:	df 91       	pop	r29
 432:	cf 91       	pop	r28
 434:	1f 91       	pop	r17
 436:	0f 91       	pop	r16
 438:	08 95       	ret

0000043a <map_tick>:
 43a:	81 30       	cpi	r24, 0x01	; 1
 43c:	91 05       	cpc	r25, r1
 43e:	a1 f0       	breq	.+40     	; 0x468 <map_tick+0x2e>
 440:	1c f4       	brge	.+6      	; 0x448 <map_tick+0xe>
 442:	89 2b       	or	r24, r25
 444:	39 f0       	breq	.+14     	; 0x454 <map_tick+0x1a>
 446:	4c c0       	rjmp	.+152    	; 0x4e0 <map_tick+0xa6>
 448:	82 30       	cpi	r24, 0x02	; 2
 44a:	91 05       	cpc	r25, r1
 44c:	d9 f0       	breq	.+54     	; 0x484 <map_tick+0x4a>
 44e:	03 97       	sbiw	r24, 0x03	; 3
 450:	09 f1       	breq	.+66     	; 0x494 <map_tick+0x5a>
 452:	46 c0       	rjmp	.+140    	; 0x4e0 <map_tick+0xa6>
 454:	31 e0       	ldi	r19, 0x01	; 1
 456:	20 e0       	ldi	r18, 0x00	; 0
 458:	80 91 c5 01 	lds	r24, 0x01C5	; 0x8001c5 <gamebool>
 45c:	81 30       	cpi	r24, 0x01	; 1
 45e:	09 f0       	breq	.+2      	; 0x462 <map_tick+0x28>
 460:	30 e0       	ldi	r19, 0x00	; 0
 462:	83 2f       	mov	r24, r19
 464:	92 2f       	mov	r25, r18
 466:	18 c0       	rjmp	.+48     	; 0x498 <map_tick+0x5e>
 468:	80 91 d0 01 	lds	r24, 0x01D0	; 0x8001d0 <i>
 46c:	8f 5f       	subi	r24, 0xFF	; 255
 46e:	8a 30       	cpi	r24, 0x0A	; 10
 470:	19 f0       	breq	.+6      	; 0x478 <map_tick+0x3e>
 472:	80 93 d0 01 	sts	0x01D0, r24	; 0x8001d0 <i>
 476:	19 c0       	rjmp	.+50     	; 0x4aa <map_tick+0x70>
 478:	10 92 d0 01 	sts	0x01D0, r1	; 0x8001d0 <i>
 47c:	80 e2       	ldi	r24, 0x20	; 32
 47e:	80 93 07 01 	sts	0x0107, r24	; 0x800107 <index>
 482:	19 c0       	rjmp	.+50     	; 0x4b6 <map_tick+0x7c>
 484:	80 91 d0 01 	lds	r24, 0x01D0	; 0x8001d0 <i>
 488:	8f 5f       	subi	r24, 0xFF	; 255
 48a:	8a 30       	cpi	r24, 0x0A	; 10
 48c:	61 f5       	brne	.+88     	; 0x4e6 <map_tick+0xac>
 48e:	10 92 d0 01 	sts	0x01D0, r1	; 0x8001d0 <i>
 492:	1d c0       	rjmp	.+58     	; 0x4ce <map_tick+0x94>
 494:	81 e0       	ldi	r24, 0x01	; 1
 496:	90 e0       	ldi	r25, 0x00	; 0
 498:	82 30       	cpi	r24, 0x02	; 2
 49a:	91 05       	cpc	r25, r1
 49c:	61 f0       	breq	.+24     	; 0x4b6 <map_tick+0x7c>
 49e:	83 30       	cpi	r24, 0x03	; 3
 4a0:	91 05       	cpc	r25, r1
 4a2:	a9 f0       	breq	.+42     	; 0x4ce <map_tick+0x94>
 4a4:	81 30       	cpi	r24, 0x01	; 1
 4a6:	91 05       	cpc	r25, r1
 4a8:	09 f5       	brne	.+66     	; 0x4ec <map_tick+0xb2>
 4aa:	81 e0       	ldi	r24, 0x01	; 1
 4ac:	80 93 c2 01 	sts	0x01C2, r24	; 0x8001c2 <foodout>
 4b0:	81 e0       	ldi	r24, 0x01	; 1
 4b2:	90 e0       	ldi	r25, 0x00	; 0
 4b4:	08 95       	ret
 4b6:	6d e3       	ldi	r22, 0x3D	; 61
 4b8:	71 e0       	ldi	r23, 0x01	; 1
 4ba:	81 e0       	ldi	r24, 0x01	; 1
 4bc:	a5 df       	rcall	.-182    	; 0x408 <LCD_DisplayString>
 4be:	10 92 c2 01 	sts	0x01C2, r1	; 0x8001c2 <foodout>
 4c2:	81 e0       	ldi	r24, 0x01	; 1
 4c4:	80 93 c1 01 	sts	0x01C1, r24	; 0x8001c1 <led_bool>
 4c8:	82 e0       	ldi	r24, 0x02	; 2
 4ca:	90 e0       	ldi	r25, 0x00	; 0
 4cc:	08 95       	ret
 4ce:	10 92 c1 01 	sts	0x01C1, r1	; 0x8001c1 <led_bool>
 4d2:	81 e0       	ldi	r24, 0x01	; 1
 4d4:	80 93 c2 01 	sts	0x01C2, r24	; 0x8001c2 <foodout>
 4d8:	59 df       	rcall	.-334    	; 0x38c <LCD_ClearScreen>
 4da:	83 e0       	ldi	r24, 0x03	; 3
 4dc:	90 e0       	ldi	r25, 0x00	; 0
 4de:	08 95       	ret
 4e0:	80 e0       	ldi	r24, 0x00	; 0
 4e2:	90 e0       	ldi	r25, 0x00	; 0
 4e4:	08 95       	ret
 4e6:	80 93 d0 01 	sts	0x01D0, r24	; 0x8001d0 <i>
 4ea:	e5 cf       	rjmp	.-54     	; 0x4b6 <map_tick+0x7c>
 4ec:	08 95       	ret

000004ee <LCD_Cursor_Off>:
 4ee:	8c e0       	ldi	r24, 0x0C	; 12
 4f0:	44 cf       	rjmp	.-376    	; 0x37a <LCD_WriteCommand>
 4f2:	08 95       	ret

000004f4 <GetKeypadKey>:
 4f4:	8f ee       	ldi	r24, 0xEF	; 239
 4f6:	88 b9       	out	0x08, r24	; 8
 4f8:	00 00       	nop
 4fa:	30 9b       	sbis	0x06, 0	; 6
 4fc:	29 c0       	rjmp	.+82     	; 0x550 <GetKeypadKey+0x5c>
 4fe:	31 9b       	sbis	0x06, 1	; 6
 500:	29 c0       	rjmp	.+82     	; 0x554 <GetKeypadKey+0x60>
 502:	32 9b       	sbis	0x06, 2	; 6
 504:	29 c0       	rjmp	.+82     	; 0x558 <GetKeypadKey+0x64>
 506:	33 9b       	sbis	0x06, 3	; 6
 508:	29 c0       	rjmp	.+82     	; 0x55c <GetKeypadKey+0x68>
 50a:	8f ed       	ldi	r24, 0xDF	; 223
 50c:	88 b9       	out	0x08, r24	; 8
 50e:	00 00       	nop
 510:	30 9b       	sbis	0x06, 0	; 6
 512:	26 c0       	rjmp	.+76     	; 0x560 <GetKeypadKey+0x6c>
 514:	31 9b       	sbis	0x06, 1	; 6
 516:	26 c0       	rjmp	.+76     	; 0x564 <GetKeypadKey+0x70>
 518:	32 9b       	sbis	0x06, 2	; 6
 51a:	26 c0       	rjmp	.+76     	; 0x568 <GetKeypadKey+0x74>
 51c:	33 9b       	sbis	0x06, 3	; 6
 51e:	26 c0       	rjmp	.+76     	; 0x56c <GetKeypadKey+0x78>
 520:	8f eb       	ldi	r24, 0xBF	; 191
 522:	88 b9       	out	0x08, r24	; 8
 524:	00 00       	nop
 526:	30 9b       	sbis	0x06, 0	; 6
 528:	23 c0       	rjmp	.+70     	; 0x570 <GetKeypadKey+0x7c>
 52a:	31 9b       	sbis	0x06, 1	; 6
 52c:	23 c0       	rjmp	.+70     	; 0x574 <GetKeypadKey+0x80>
 52e:	32 9b       	sbis	0x06, 2	; 6
 530:	23 c0       	rjmp	.+70     	; 0x578 <GetKeypadKey+0x84>
 532:	33 9b       	sbis	0x06, 3	; 6
 534:	23 c0       	rjmp	.+70     	; 0x57c <GetKeypadKey+0x88>
 536:	8f e7       	ldi	r24, 0x7F	; 127
 538:	88 b9       	out	0x08, r24	; 8
 53a:	00 00       	nop
 53c:	30 9b       	sbis	0x06, 0	; 6
 53e:	20 c0       	rjmp	.+64     	; 0x580 <GetKeypadKey+0x8c>
 540:	31 9b       	sbis	0x06, 1	; 6
 542:	20 c0       	rjmp	.+64     	; 0x584 <GetKeypadKey+0x90>
 544:	32 9b       	sbis	0x06, 2	; 6
 546:	20 c0       	rjmp	.+64     	; 0x588 <GetKeypadKey+0x94>
 548:	33 9b       	sbis	0x06, 3	; 6
 54a:	20 c0       	rjmp	.+64     	; 0x58c <GetKeypadKey+0x98>
 54c:	80 e0       	ldi	r24, 0x00	; 0
 54e:	08 95       	ret
 550:	81 e3       	ldi	r24, 0x31	; 49
 552:	08 95       	ret
 554:	84 e3       	ldi	r24, 0x34	; 52
 556:	08 95       	ret
 558:	87 e3       	ldi	r24, 0x37	; 55
 55a:	08 95       	ret
 55c:	8a e2       	ldi	r24, 0x2A	; 42
 55e:	08 95       	ret
 560:	82 e3       	ldi	r24, 0x32	; 50
 562:	08 95       	ret
 564:	85 e3       	ldi	r24, 0x35	; 53
 566:	08 95       	ret
 568:	88 e3       	ldi	r24, 0x38	; 56
 56a:	08 95       	ret
 56c:	80 e3       	ldi	r24, 0x30	; 48
 56e:	08 95       	ret
 570:	83 e3       	ldi	r24, 0x33	; 51
 572:	08 95       	ret
 574:	86 e3       	ldi	r24, 0x36	; 54
 576:	08 95       	ret
 578:	89 e3       	ldi	r24, 0x39	; 57
 57a:	08 95       	ret
 57c:	83 e2       	ldi	r24, 0x23	; 35
 57e:	08 95       	ret
 580:	81 e4       	ldi	r24, 0x41	; 65
 582:	08 95       	ret
 584:	82 e4       	ldi	r24, 0x42	; 66
 586:	08 95       	ret
 588:	83 e4       	ldi	r24, 0x43	; 67
 58a:	08 95       	ret
 58c:	84 e4       	ldi	r24, 0x44	; 68
 58e:	08 95       	ret

00000590 <keypad_tick>:
 590:	cf 93       	push	r28
 592:	df 93       	push	r29
 594:	ec 01       	movw	r28, r24
 596:	82 30       	cpi	r24, 0x02	; 2
 598:	91 05       	cpc	r25, r1
 59a:	29 f1       	breq	.+74     	; 0x5e6 <keypad_tick+0x56>
 59c:	2c f4       	brge	.+10     	; 0x5a8 <keypad_tick+0x18>
 59e:	00 97       	sbiw	r24, 0x00	; 0
 5a0:	49 f0       	breq	.+18     	; 0x5b4 <keypad_tick+0x24>
 5a2:	01 97       	sbiw	r24, 0x01	; 1
 5a4:	71 f0       	breq	.+28     	; 0x5c2 <keypad_tick+0x32>
 5a6:	58 c0       	rjmp	.+176    	; 0x658 <keypad_tick+0xc8>
 5a8:	83 30       	cpi	r24, 0x03	; 3
 5aa:	91 05       	cpc	r25, r1
 5ac:	f9 f0       	breq	.+62     	; 0x5ec <keypad_tick+0x5c>
 5ae:	04 97       	sbiw	r24, 0x04	; 4
 5b0:	01 f1       	breq	.+64     	; 0x5f2 <keypad_tick+0x62>
 5b2:	52 c0       	rjmp	.+164    	; 0x658 <keypad_tick+0xc8>
 5b4:	80 91 c7 01 	lds	r24, 0x01C7	; 0x8001c7 <selection>
 5b8:	84 30       	cpi	r24, 0x04	; 4
 5ba:	f1 f4       	brne	.+60     	; 0x5f8 <keypad_tick+0x68>
 5bc:	10 92 c7 01 	sts	0x01C7, r1	; 0x8001c7 <selection>
 5c0:	4b c0       	rjmp	.+150    	; 0x658 <keypad_tick+0xc8>
 5c2:	80 91 c7 01 	lds	r24, 0x01C7	; 0x8001c7 <selection>
 5c6:	81 30       	cpi	r24, 0x01	; 1
 5c8:	19 f4       	brne	.+6      	; 0x5d0 <keypad_tick+0x40>
 5ca:	10 92 c7 01 	sts	0x01C7, r1	; 0x8001c7 <selection>
 5ce:	72 c0       	rjmp	.+228    	; 0x6b4 <keypad_tick+0x124>
 5d0:	82 30       	cpi	r24, 0x02	; 2
 5d2:	19 f4       	brne	.+6      	; 0x5da <keypad_tick+0x4a>
 5d4:	10 92 c7 01 	sts	0x01C7, r1	; 0x8001c7 <selection>
 5d8:	73 c0       	rjmp	.+230    	; 0x6c0 <keypad_tick+0x130>
 5da:	83 30       	cpi	r24, 0x03	; 3
 5dc:	09 f0       	breq	.+2      	; 0x5e0 <keypad_tick+0x50>
 5de:	3c c0       	rjmp	.+120    	; 0x658 <keypad_tick+0xc8>
 5e0:	10 92 c7 01 	sts	0x01C7, r1	; 0x8001c7 <selection>
 5e4:	74 c0       	rjmp	.+232    	; 0x6ce <keypad_tick+0x13e>
 5e6:	10 92 c7 01 	sts	0x01C7, r1	; 0x8001c7 <selection>
 5ea:	64 c0       	rjmp	.+200    	; 0x6b4 <keypad_tick+0x124>
 5ec:	10 92 c7 01 	sts	0x01C7, r1	; 0x8001c7 <selection>
 5f0:	67 c0       	rjmp	.+206    	; 0x6c0 <keypad_tick+0x130>
 5f2:	10 92 c7 01 	sts	0x01C7, r1	; 0x8001c7 <selection>
 5f6:	6b c0       	rjmp	.+214    	; 0x6ce <keypad_tick+0x13e>
 5f8:	7d df       	rcall	.-262    	; 0x4f4 <GetKeypadKey>
 5fa:	80 93 ce 01 	sts	0x01CE, r24	; 0x8001ce <x>
 5fe:	81 33       	cpi	r24, 0x31	; 49
 600:	31 f4       	brne	.+12     	; 0x60e <keypad_tick+0x7e>
 602:	10 92 ce 01 	sts	0x01CE, r1	; 0x8001ce <x>
 606:	84 e0       	ldi	r24, 0x04	; 4
 608:	80 93 c7 01 	sts	0x01C7, r24	; 0x8001c7 <selection>
 60c:	66 c0       	rjmp	.+204    	; 0x6da <keypad_tick+0x14a>
 60e:	60 91 c6 01 	lds	r22, 0x01C6	; 0x8001c6 <ind>
 612:	70 e0       	ldi	r23, 0x00	; 0
 614:	68 5f       	subi	r22, 0xF8	; 248
 616:	7e 4f       	sbci	r23, 0xFE	; 254
 618:	40 e1       	ldi	r20, 0x10	; 16
 61a:	50 e0       	ldi	r21, 0x00	; 0
 61c:	81 ed       	ldi	r24, 0xD1	; 209
 61e:	91 e0       	ldi	r25, 0x01	; 1
 620:	88 d2       	rcall	.+1296   	; 0xb32 <strncpy>
 622:	10 92 e1 01 	sts	0x01E1, r1	; 0x8001e1 <reading+0x10>
 626:	b2 de       	rcall	.-668    	; 0x38c <LCD_ClearScreen>
 628:	61 ed       	ldi	r22, 0xD1	; 209
 62a:	71 e0       	ldi	r23, 0x01	; 1
 62c:	81 e0       	ldi	r24, 0x01	; 1
 62e:	ec de       	rcall	.-552    	; 0x408 <LCD_DisplayString>
 630:	80 91 c6 01 	lds	r24, 0x01C6	; 0x8001c6 <ind>
 634:	8f 5f       	subi	r24, 0xFF	; 255
 636:	95 e6       	ldi	r25, 0x65	; 101
 638:	89 9f       	mul	r24, r25
 63a:	21 2d       	mov	r18, r1
 63c:	11 24       	eor	r1, r1
 63e:	98 2f       	mov	r25, r24
 640:	92 1b       	sub	r25, r18
 642:	96 95       	lsr	r25
 644:	92 0f       	add	r25, r18
 646:	92 95       	swap	r25
 648:	9f 70       	andi	r25, 0x0F	; 15
 64a:	27 e1       	ldi	r18, 0x17	; 23
 64c:	92 9f       	mul	r25, r18
 64e:	80 19       	sub	r24, r0
 650:	11 24       	eor	r1, r1
 652:	80 93 c6 01 	sts	0x01C6, r24	; 0x8001c6 <ind>
 656:	41 c0       	rjmp	.+130    	; 0x6da <keypad_tick+0x14a>
 658:	61 e5       	ldi	r22, 0x51	; 81
 65a:	71 e0       	ldi	r23, 0x01	; 1
 65c:	81 e0       	ldi	r24, 0x01	; 1
 65e:	d4 de       	rcall	.-600    	; 0x408 <LCD_DisplayString>
 660:	46 df       	rcall	.-372    	; 0x4ee <LCD_Cursor_Off>
 662:	48 df       	rcall	.-368    	; 0x4f4 <GetKeypadKey>
 664:	80 93 ce 01 	sts	0x01CE, r24	; 0x8001ce <x>
 668:	81 34       	cpi	r24, 0x41	; 65
 66a:	49 f0       	breq	.+18     	; 0x67e <keypad_tick+0xee>
 66c:	18 f4       	brcc	.+6      	; 0x674 <keypad_tick+0xe4>
 66e:	88 23       	and	r24, r24
 670:	f1 f0       	breq	.+60     	; 0x6ae <keypad_tick+0x11e>
 672:	15 c0       	rjmp	.+42     	; 0x69e <keypad_tick+0x10e>
 674:	82 34       	cpi	r24, 0x42	; 66
 676:	51 f0       	breq	.+20     	; 0x68c <keypad_tick+0xfc>
 678:	83 34       	cpi	r24, 0x43	; 67
 67a:	71 f0       	breq	.+28     	; 0x698 <keypad_tick+0x108>
 67c:	10 c0       	rjmp	.+32     	; 0x69e <keypad_tick+0x10e>
 67e:	86 de       	rcall	.-756    	; 0x38c <LCD_ClearScreen>
 680:	81 e0       	ldi	r24, 0x01	; 1
 682:	80 93 c7 01 	sts	0x01C7, r24	; 0x8001c7 <selection>
 686:	c1 e0       	ldi	r28, 0x01	; 1
 688:	d0 e0       	ldi	r29, 0x00	; 0
 68a:	27 c0       	rjmp	.+78     	; 0x6da <keypad_tick+0x14a>
 68c:	82 e0       	ldi	r24, 0x02	; 2
 68e:	80 93 c7 01 	sts	0x01C7, r24	; 0x8001c7 <selection>
 692:	c1 e0       	ldi	r28, 0x01	; 1
 694:	d0 e0       	ldi	r29, 0x00	; 0
 696:	21 c0       	rjmp	.+66     	; 0x6da <keypad_tick+0x14a>
 698:	83 e0       	ldi	r24, 0x03	; 3
 69a:	80 93 c7 01 	sts	0x01C7, r24	; 0x8001c7 <selection>
 69e:	61 e5       	ldi	r22, 0x51	; 81
 6a0:	71 e0       	ldi	r23, 0x01	; 1
 6a2:	81 e0       	ldi	r24, 0x01	; 1
 6a4:	b1 de       	rcall	.-670    	; 0x408 <LCD_DisplayString>
 6a6:	23 df       	rcall	.-442    	; 0x4ee <LCD_Cursor_Off>
 6a8:	c1 e0       	ldi	r28, 0x01	; 1
 6aa:	d0 e0       	ldi	r29, 0x00	; 0
 6ac:	16 c0       	rjmp	.+44     	; 0x6da <keypad_tick+0x14a>
 6ae:	c1 e0       	ldi	r28, 0x01	; 1
 6b0:	d0 e0       	ldi	r29, 0x00	; 0
 6b2:	13 c0       	rjmp	.+38     	; 0x6da <keypad_tick+0x14a>
 6b4:	81 e0       	ldi	r24, 0x01	; 1
 6b6:	80 93 c5 01 	sts	0x01C5, r24	; 0x8001c5 <gamebool>
 6ba:	c2 e0       	ldi	r28, 0x02	; 2
 6bc:	d0 e0       	ldi	r29, 0x00	; 0
 6be:	0d c0       	rjmp	.+26     	; 0x6da <keypad_tick+0x14a>
 6c0:	6e e6       	ldi	r22, 0x6E	; 110
 6c2:	71 e0       	ldi	r23, 0x01	; 1
 6c4:	81 e0       	ldi	r24, 0x01	; 1
 6c6:	a0 de       	rcall	.-704    	; 0x408 <LCD_DisplayString>
 6c8:	c3 e0       	ldi	r28, 0x03	; 3
 6ca:	d0 e0       	ldi	r29, 0x00	; 0
 6cc:	06 c0       	rjmp	.+12     	; 0x6da <keypad_tick+0x14a>
 6ce:	64 e6       	ldi	r22, 0x64	; 100
 6d0:	71 e0       	ldi	r23, 0x01	; 1
 6d2:	81 e0       	ldi	r24, 0x01	; 1
 6d4:	99 de       	rcall	.-718    	; 0x408 <LCD_DisplayString>
 6d6:	c4 e0       	ldi	r28, 0x04	; 4
 6d8:	d0 e0       	ldi	r29, 0x00	; 0
 6da:	ce 01       	movw	r24, r28
 6dc:	df 91       	pop	r29
 6de:	cf 91       	pop	r28
 6e0:	08 95       	ret

000006e2 <gameplay_tick>:
 6e2:	cf 93       	push	r28
 6e4:	df 93       	push	r29
 6e6:	ec 01       	movw	r28, r24
 6e8:	82 30       	cpi	r24, 0x02	; 2
 6ea:	91 05       	cpc	r25, r1
 6ec:	f1 f0       	breq	.+60     	; 0x72a <gameplay_tick+0x48>
 6ee:	2c f4       	brge	.+10     	; 0x6fa <gameplay_tick+0x18>
 6f0:	00 97       	sbiw	r24, 0x00	; 0
 6f2:	59 f0       	breq	.+22     	; 0x70a <gameplay_tick+0x28>
 6f4:	01 97       	sbiw	r24, 0x01	; 1
 6f6:	99 f0       	breq	.+38     	; 0x71e <gameplay_tick+0x3c>
 6f8:	65 c0       	rjmp	.+202    	; 0x7c4 <gameplay_tick+0xe2>
 6fa:	83 30       	cpi	r24, 0x03	; 3
 6fc:	91 05       	cpc	r25, r1
 6fe:	09 f4       	brne	.+2      	; 0x702 <gameplay_tick+0x20>
 700:	58 c0       	rjmp	.+176    	; 0x7b2 <gameplay_tick+0xd0>
 702:	04 97       	sbiw	r24, 0x04	; 4
 704:	09 f4       	brne	.+2      	; 0x708 <gameplay_tick+0x26>
 706:	6c c0       	rjmp	.+216    	; 0x7e0 <gameplay_tick+0xfe>
 708:	5d c0       	rjmp	.+186    	; 0x7c4 <gameplay_tick+0xe2>
 70a:	91 e0       	ldi	r25, 0x01	; 1
 70c:	80 e0       	ldi	r24, 0x00	; 0
 70e:	20 91 c5 01 	lds	r18, 0x01C5	; 0x8001c5 <gamebool>
 712:	21 30       	cpi	r18, 0x01	; 1
 714:	09 f0       	breq	.+2      	; 0x718 <gameplay_tick+0x36>
 716:	90 e0       	ldi	r25, 0x00	; 0
 718:	c9 2f       	mov	r28, r25
 71a:	d8 2f       	mov	r29, r24
 71c:	53 c0       	rjmp	.+166    	; 0x7c4 <gameplay_tick+0xe2>
 71e:	80 91 c0 01 	lds	r24, 0x01C0	; 0x8001c0 <j>
 722:	8f 5f       	subi	r24, 0xFF	; 255
 724:	80 93 c0 01 	sts	0x01C0, r24	; 0x8001c0 <j>
 728:	67 c0       	rjmp	.+206    	; 0x7f8 <gameplay_tick+0x116>
 72a:	80 91 c0 01 	lds	r24, 0x01C0	; 0x8001c0 <j>
 72e:	8f 5f       	subi	r24, 0xFF	; 255
 730:	80 93 c0 01 	sts	0x01C0, r24	; 0x8001c0 <j>
 734:	8a 30       	cpi	r24, 0x0A	; 10
 736:	19 f4       	brne	.+6      	; 0x73e <gameplay_tick+0x5c>
 738:	10 92 c0 01 	sts	0x01C0, r1	; 0x8001c0 <j>
 73c:	71 c0       	rjmp	.+226    	; 0x820 <gameplay_tick+0x13e>
 73e:	da de       	rcall	.-588    	; 0x4f4 <GetKeypadKey>
 740:	80 93 ce 01 	sts	0x01CE, r24	; 0x8001ce <x>
 744:	84 33       	cpi	r24, 0x34	; 52
 746:	59 f1       	breq	.+86     	; 0x79e <gameplay_tick+0xbc>
 748:	18 f4       	brcc	.+6      	; 0x750 <gameplay_tick+0x6e>
 74a:	82 33       	cpi	r24, 0x32	; 50
 74c:	31 f0       	breq	.+12     	; 0x75a <gameplay_tick+0x78>
 74e:	3a c0       	rjmp	.+116    	; 0x7c4 <gameplay_tick+0xe2>
 750:	85 33       	cpi	r24, 0x35	; 53
 752:	79 f0       	breq	.+30     	; 0x772 <gameplay_tick+0x90>
 754:	86 33       	cpi	r24, 0x36	; 54
 756:	c9 f0       	breq	.+50     	; 0x78a <gameplay_tick+0xa8>
 758:	35 c0       	rjmp	.+106    	; 0x7c4 <gameplay_tick+0xe2>
 75a:	80 91 05 01 	lds	r24, 0x0105	; 0x800105 <initial>
 75e:	81 51       	subi	r24, 0x11	; 17
 760:	80 31       	cpi	r24, 0x10	; 16
 762:	08 f0       	brcs	.+2      	; 0x766 <gameplay_tick+0x84>
 764:	49 c0       	rjmp	.+146    	; 0x7f8 <gameplay_tick+0x116>
 766:	80 91 06 01 	lds	r24, 0x0106	; 0x800106 <position>
 76a:	80 51       	subi	r24, 0x10	; 16
 76c:	80 93 06 01 	sts	0x0106, r24	; 0x800106 <position>
 770:	43 c0       	rjmp	.+134    	; 0x7f8 <gameplay_tick+0x116>
 772:	80 91 05 01 	lds	r24, 0x0105	; 0x800105 <initial>
 776:	81 50       	subi	r24, 0x01	; 1
 778:	80 31       	cpi	r24, 0x10	; 16
 77a:	08 f0       	brcs	.+2      	; 0x77e <gameplay_tick+0x9c>
 77c:	3d c0       	rjmp	.+122    	; 0x7f8 <gameplay_tick+0x116>
 77e:	80 91 06 01 	lds	r24, 0x0106	; 0x800106 <position>
 782:	80 5f       	subi	r24, 0xF0	; 240
 784:	80 93 06 01 	sts	0x0106, r24	; 0x800106 <position>
 788:	37 c0       	rjmp	.+110    	; 0x7f8 <gameplay_tick+0x116>
 78a:	80 91 05 01 	lds	r24, 0x0105	; 0x800105 <initial>
 78e:	80 32       	cpi	r24, 0x20	; 32
 790:	98 f5       	brcc	.+102    	; 0x7f8 <gameplay_tick+0x116>
 792:	80 91 06 01 	lds	r24, 0x0106	; 0x800106 <position>
 796:	8f 5f       	subi	r24, 0xFF	; 255
 798:	80 93 06 01 	sts	0x0106, r24	; 0x800106 <position>
 79c:	2d c0       	rjmp	.+90     	; 0x7f8 <gameplay_tick+0x116>
 79e:	80 91 05 01 	lds	r24, 0x0105	; 0x800105 <initial>
 7a2:	82 30       	cpi	r24, 0x02	; 2
 7a4:	48 f1       	brcs	.+82     	; 0x7f8 <gameplay_tick+0x116>
 7a6:	80 91 06 01 	lds	r24, 0x0106	; 0x800106 <position>
 7aa:	81 50       	subi	r24, 0x01	; 1
 7ac:	80 93 06 01 	sts	0x0106, r24	; 0x800106 <position>
 7b0:	23 c0       	rjmp	.+70     	; 0x7f8 <gameplay_tick+0x116>
 7b2:	80 91 c0 01 	lds	r24, 0x01C0	; 0x8001c0 <j>
 7b6:	8f 5f       	subi	r24, 0xFF	; 255
 7b8:	8a 30       	cpi	r24, 0x0A	; 10
 7ba:	09 f0       	breq	.+2      	; 0x7be <gameplay_tick+0xdc>
 7bc:	48 c0       	rjmp	.+144    	; 0x84e <gameplay_tick+0x16c>
 7be:	10 92 c0 01 	sts	0x01C0, r1	; 0x8001c0 <j>
 7c2:	34 c0       	rjmp	.+104    	; 0x82c <gameplay_tick+0x14a>
 7c4:	c2 30       	cpi	r28, 0x02	; 2
 7c6:	d1 05       	cpc	r29, r1
 7c8:	b9 f0       	breq	.+46     	; 0x7f8 <gameplay_tick+0x116>
 7ca:	24 f4       	brge	.+8      	; 0x7d4 <gameplay_tick+0xf2>
 7cc:	21 97       	sbiw	r28, 0x01	; 1
 7ce:	09 f0       	breq	.+2      	; 0x7d2 <gameplay_tick+0xf0>
 7d0:	3b c0       	rjmp	.+118    	; 0x848 <gameplay_tick+0x166>
 7d2:	06 c0       	rjmp	.+12     	; 0x7e0 <gameplay_tick+0xfe>
 7d4:	c3 30       	cpi	r28, 0x03	; 3
 7d6:	d1 05       	cpc	r29, r1
 7d8:	19 f1       	breq	.+70     	; 0x820 <gameplay_tick+0x13e>
 7da:	24 97       	sbiw	r28, 0x04	; 4
 7dc:	39 f1       	breq	.+78     	; 0x82c <gameplay_tick+0x14a>
 7de:	34 c0       	rjmp	.+104    	; 0x848 <gameplay_tick+0x166>
 7e0:	81 e0       	ldi	r24, 0x01	; 1
 7e2:	80 93 c2 01 	sts	0x01C2, r24	; 0x8001c2 <foodout>
 7e6:	80 91 05 01 	lds	r24, 0x0105	; 0x800105 <initial>
 7ea:	d3 dd       	rcall	.-1114   	; 0x392 <LCD_Cursor>
 7ec:	81 e0       	ldi	r24, 0x01	; 1
 7ee:	e8 dd       	rcall	.-1072   	; 0x3c0 <LCD_WriteData>
 7f0:	7e de       	rcall	.-772    	; 0x4ee <LCD_Cursor_Off>
 7f2:	81 e0       	ldi	r24, 0x01	; 1
 7f4:	90 e0       	ldi	r25, 0x00	; 0
 7f6:	2e c0       	rjmp	.+92     	; 0x854 <gameplay_tick+0x172>
 7f8:	80 91 05 01 	lds	r24, 0x0105	; 0x800105 <initial>
 7fc:	ca dd       	rcall	.-1132   	; 0x392 <LCD_Cursor>
 7fe:	80 e2       	ldi	r24, 0x20	; 32
 800:	df dd       	rcall	.-1090   	; 0x3c0 <LCD_WriteData>
 802:	80 91 06 01 	lds	r24, 0x0106	; 0x800106 <position>
 806:	c5 dd       	rcall	.-1142   	; 0x392 <LCD_Cursor>
 808:	81 e0       	ldi	r24, 0x01	; 1
 80a:	da dd       	rcall	.-1100   	; 0x3c0 <LCD_WriteData>
 80c:	70 de       	rcall	.-800    	; 0x4ee <LCD_Cursor_Off>
 80e:	80 91 06 01 	lds	r24, 0x0106	; 0x800106 <position>
 812:	80 93 05 01 	sts	0x0105, r24	; 0x800105 <initial>
 816:	80 e2       	ldi	r24, 0x20	; 32
 818:	85 b9       	out	0x05, r24	; 5
 81a:	82 e0       	ldi	r24, 0x02	; 2
 81c:	90 e0       	ldi	r25, 0x00	; 0
 81e:	1a c0       	rjmp	.+52     	; 0x854 <gameplay_tick+0x172>
 820:	15 b8       	out	0x05, r1	; 5
 822:	10 92 c2 01 	sts	0x01C2, r1	; 0x8001c2 <foodout>
 826:	83 e0       	ldi	r24, 0x03	; 3
 828:	90 e0       	ldi	r25, 0x00	; 0
 82a:	14 c0       	rjmp	.+40     	; 0x854 <gameplay_tick+0x172>
 82c:	81 e0       	ldi	r24, 0x01	; 1
 82e:	80 93 05 01 	sts	0x0105, r24	; 0x800105 <initial>
 832:	80 93 06 01 	sts	0x0106, r24	; 0x800106 <position>
 836:	80 93 c2 01 	sts	0x01C2, r24	; 0x8001c2 <foodout>
 83a:	10 92 c1 01 	sts	0x01C1, r1	; 0x8001c1 <led_bool>
 83e:	10 92 bf 01 	sts	0x01BF, r1	; 0x8001bf <hit>
 842:	84 e0       	ldi	r24, 0x04	; 4
 844:	90 e0       	ldi	r25, 0x00	; 0
 846:	06 c0       	rjmp	.+12     	; 0x854 <gameplay_tick+0x172>
 848:	80 e0       	ldi	r24, 0x00	; 0
 84a:	90 e0       	ldi	r25, 0x00	; 0
 84c:	03 c0       	rjmp	.+6      	; 0x854 <gameplay_tick+0x172>
 84e:	80 93 c0 01 	sts	0x01C0, r24	; 0x8001c0 <j>
 852:	e6 cf       	rjmp	.-52     	; 0x820 <gameplay_tick+0x13e>
 854:	df 91       	pop	r29
 856:	cf 91       	pop	r28
 858:	08 95       	ret

0000085a <main>:




int main(void)
{
 85a:	cf 93       	push	r28
 85c:	df 93       	push	r29
 85e:	cd b7       	in	r28, 0x3d	; 61
 860:	de b7       	in	r29, 0x3e	; 62
 862:	2e 97       	sbiw	r28, 0x0e	; 14
 864:	0f b6       	in	r0, 0x3f	; 63
 866:	f8 94       	cli
 868:	de bf       	out	0x3e, r29	; 62
 86a:	0f be       	out	0x3f, r0	; 63
 86c:	cd bf       	out	0x3d, r28	; 61
	DDRA = 0xFF; PORTA = 0x00;
 86e:	8f ef       	ldi	r24, 0xFF	; 255
 870:	81 b9       	out	0x01, r24	; 1
 872:	12 b8       	out	0x02, r1	; 2
	DDRB = 0xFF; PORTB = 0x00; // PORTB set to output, outputs init 0s
 874:	84 b9       	out	0x04, r24	; 4
 876:	15 b8       	out	0x05, r1	; 5
	DDRC = 0xF0; PORTC = 0x0F; // PC7..4 outputs init 0s, PC3..0 inputs init 1s
 878:	90 ef       	ldi	r25, 0xF0	; 240
 87a:	97 b9       	out	0x07, r25	; 7
 87c:	9f e0       	ldi	r25, 0x0F	; 15
 87e:	98 b9       	out	0x08, r25	; 8
	DDRD = 0xFF; PORTD = 0xFF;
 880:	8a b9       	out	0x0a, r24	; 10
 882:	8b b9       	out	0x0b, r24	; 11
	static task task1, gameplay,map,food,led, task2;
	time_t t;
	srand((unsigned) time(&t));
 884:	ce 01       	movw	r24, r28
 886:	01 96       	adiw	r24, 0x01	; 1
 888:	1f dc       	rcall	.-1986   	; 0xc8 <time>
 88a:	cb 01       	movw	r24, r22
 88c:	47 d1       	rcall	.+654    	; 0xb1c <srand>
	LCD_build();
 88e:	a1 dd       	rcall	.-1214   	; 0x3d2 <LCD_build>
 890:	e2 ea       	ldi	r30, 0xA2	; 162
	task1.state = keypad_state;
 892:	f1 e0       	ldi	r31, 0x01	; 1
 894:	80 91 c8 01 	lds	r24, 0x01C8	; 0x8001c8 <keypad_state>
 898:	80 83       	st	Z, r24
 89a:	8a ef       	ldi	r24, 0xFA	; 250
	task1.period = 250;
 89c:	90 e0       	ldi	r25, 0x00	; 0
 89e:	a0 e0       	ldi	r26, 0x00	; 0
 8a0:	b0 e0       	ldi	r27, 0x00	; 0
 8a2:	81 83       	std	Z+1, r24	; 0x01
 8a4:	92 83       	std	Z+2, r25	; 0x02
 8a6:	a3 83       	std	Z+3, r26	; 0x03
 8a8:	b4 83       	std	Z+4, r27	; 0x04
 8aa:	15 82       	std	Z+5, r1	; 0x05
	task1.elapsedTime = 0;
 8ac:	16 82       	std	Z+6, r1	; 0x06
 8ae:	17 82       	std	Z+7, r1	; 0x07
 8b0:	10 86       	std	Z+8, r1	; 0x08
 8b2:	28 ec       	ldi	r18, 0xC8	; 200
	task1.TickFct = &keypad_tick;
 8b4:	32 e0       	ldi	r19, 0x02	; 2
 8b6:	32 87       	std	Z+10, r19	; 0x0a
 8b8:	21 87       	std	Z+9, r18	; 0x09
 8ba:	e7 e9       	ldi	r30, 0x97	; 151
	
	gameplay.state = game_state;
 8bc:	f1 e0       	ldi	r31, 0x01	; 1
 8be:	20 91 c4 01 	lds	r18, 0x01C4	; 0x8001c4 <game_state>
 8c2:	20 83       	st	Z, r18
 8c4:	81 83       	std	Z+1, r24	; 0x01
	gameplay.period = 250;
 8c6:	92 83       	std	Z+2, r25	; 0x02
 8c8:	a3 83       	std	Z+3, r26	; 0x03
 8ca:	b4 83       	std	Z+4, r27	; 0x04
 8cc:	15 82       	std	Z+5, r1	; 0x05
	gameplay.elapsedTime = 0;
 8ce:	16 82       	std	Z+6, r1	; 0x06
 8d0:	17 82       	std	Z+7, r1	; 0x07
 8d2:	10 86       	std	Z+8, r1	; 0x08
 8d4:	21 e7       	ldi	r18, 0x71	; 113
	gameplay.TickFct = &gameplay_tick;
 8d6:	33 e0       	ldi	r19, 0x03	; 3
 8d8:	32 87       	std	Z+10, r19	; 0x0a
 8da:	21 87       	std	Z+9, r18	; 0x09
 8dc:	ec e8       	ldi	r30, 0x8C	; 140
	
	map.state = map_state;
 8de:	f1 e0       	ldi	r31, 0x01	; 1
 8e0:	20 91 c3 01 	lds	r18, 0x01C3	; 0x8001c3 <map_state>
 8e4:	20 83       	st	Z, r18
 8e6:	81 83       	std	Z+1, r24	; 0x01
	map.period = 250;
 8e8:	92 83       	std	Z+2, r25	; 0x02
 8ea:	a3 83       	std	Z+3, r26	; 0x03
 8ec:	b4 83       	std	Z+4, r27	; 0x04
 8ee:	15 82       	std	Z+5, r1	; 0x05
	map.elapsedTime = 0;
 8f0:	16 82       	std	Z+6, r1	; 0x06
 8f2:	17 82       	std	Z+7, r1	; 0x07
 8f4:	10 86       	std	Z+8, r1	; 0x08
 8f6:	2d e1       	ldi	r18, 0x1D	; 29
	map.TickFct = &map_tick;
 8f8:	32 e0       	ldi	r19, 0x02	; 2
 8fa:	32 87       	std	Z+10, r19	; 0x0a
 8fc:	21 87       	std	Z+9, r18	; 0x09
 8fe:	e1 e8       	ldi	r30, 0x81	; 129
	
	food.state = food_state;
 900:	f1 e0       	ldi	r31, 0x01	; 1
 902:	20 91 be 01 	lds	r18, 0x01BE	; 0x8001be <food_state>
 906:	20 83       	st	Z, r18
 908:	81 83       	std	Z+1, r24	; 0x01
	food.period = 250;
 90a:	92 83       	std	Z+2, r25	; 0x02
 90c:	a3 83       	std	Z+3, r26	; 0x03
 90e:	b4 83       	std	Z+4, r27	; 0x04
 910:	15 82       	std	Z+5, r1	; 0x05
	food.elapsedTime = 0;
 912:	16 82       	std	Z+6, r1	; 0x06
 914:	17 82       	std	Z+7, r1	; 0x07
 916:	10 86       	std	Z+8, r1	; 0x08
 918:	27 e7       	ldi	r18, 0x77	; 119
	food.TickFct = &food_tick;
 91a:	30 e0       	ldi	r19, 0x00	; 0
 91c:	32 87       	std	Z+10, r19	; 0x0a
 91e:	21 87       	std	Z+9, r18	; 0x09
 920:	e6 e7       	ldi	r30, 0x76	; 118
	
	led.state = led_state;
 922:	f1 e0       	ldi	r31, 0x01	; 1
 924:	20 91 ae 01 	lds	r18, 0x01AE	; 0x8001ae <led_state>
 928:	20 83       	st	Z, r18
 92a:	81 83       	std	Z+1, r24	; 0x01
	led.period = 250;
 92c:	92 83       	std	Z+2, r25	; 0x02
 92e:	a3 83       	std	Z+3, r26	; 0x03
 930:	b4 83       	std	Z+4, r27	; 0x04
 932:	15 82       	std	Z+5, r1	; 0x05
	led.elapsedTime = 0;
 934:	16 82       	std	Z+6, r1	; 0x06
 936:	17 82       	std	Z+7, r1	; 0x07
 938:	10 86       	std	Z+8, r1	; 0x08
 93a:	8f ed       	ldi	r24, 0xDF	; 223
	led.TickFct = &LED_tick;
 93c:	90 e0       	ldi	r25, 0x00	; 0
 93e:	92 87       	std	Z+10, r25	; 0x0a
 940:	81 87       	std	Z+9, r24	; 0x09
	
	LCD_init();
 942:	2f dd       	rcall	.-1442   	; 0x3a2 <LCD_init>
 944:	10 92 cf 01 	sts	0x01CF, r1	; 0x8001cf <in>

	in = 0;
 948:	8a e0       	ldi	r24, 0x0A	; 10
	
	task *tasks[] = { &task1, &gameplay, &map, &food, &led };
 94a:	e3 e3       	ldi	r30, 0x33	; 51
 94c:	f1 e0       	ldi	r31, 0x01	; 1
 94e:	de 01       	movw	r26, r28
 950:	15 96       	adiw	r26, 0x05	; 5
 952:	01 90       	ld	r0, Z+
 954:	0d 92       	st	X+, r0
 956:	8a 95       	dec	r24
 958:	e1 f7       	brne	.-8      	; 0x952 <main+0xf8>
 95a:	61 e0       	ldi	r22, 0x01	; 1
	
	TimerSet(1);
 95c:	70 e0       	ldi	r23, 0x00	; 0
 95e:	80 e0       	ldi	r24, 0x00	; 0
 960:	90 e0       	ldi	r25, 0x00	; 0
 962:	87 dc       	rcall	.-1778   	; 0x272 <TimerSet>
	TimerOn();
 964:	97 dc       	rcall	.-1746   	; 0x294 <TimerOn>
 966:	7e 01       	movw	r14, r28
 968:	8f e0       	ldi	r24, 0x0F	; 15
 96a:	e8 0e       	add	r14, r24
 96c:	f1 1c       	adc	r15, r1
 96e:	80 b1       	in	r24, 0x00	; 0
	unsigned short i;
	while(1) {
		A = ~PINA;
 970:	80 95       	com	r24
 972:	80 93 ad 01 	sts	0x01AD, r24	; 0x8001ad <A>
 976:	6e 01       	movw	r12, r28
 978:	a5 e0       	ldi	r26, 0x05	; 5
 97a:	ca 0e       	add	r12, r26
 97c:	d1 1c       	adc	r13, r1
 97e:	f6 01       	movw	r30, r12
		for ( i = 0; i < 5; i++ ) {
			// Task is ready to tick
			if ( tasks[i]->elapsedTime == tasks[i]->period ) {
 980:	01 91       	ld	r16, Z+
 982:	11 91       	ld	r17, Z+
 984:	6f 01       	movw	r12, r30
 986:	d8 01       	movw	r26, r16
 988:	15 96       	adiw	r26, 0x05	; 5
 98a:	4d 91       	ld	r20, X+
 98c:	5d 91       	ld	r21, X+
 98e:	6d 91       	ld	r22, X+
 990:	7c 91       	ld	r23, X
 992:	18 97       	sbiw	r26, 0x08	; 8
 994:	11 96       	adiw	r26, 0x01	; 1
 996:	8d 91       	ld	r24, X+
 998:	9d 91       	ld	r25, X+
 99a:	0d 90       	ld	r0, X+
 99c:	bc 91       	ld	r27, X
 99e:	a0 2d       	mov	r26, r0
 9a0:	48 17       	cp	r20, r24
 9a2:	59 07       	cpc	r21, r25
 9a4:	6a 07       	cpc	r22, r26
 9a6:	7b 07       	cpc	r23, r27
 9a8:	81 f4       	brne	.+32     	; 0x9ca <main+0x170>
 9aa:	f8 01       	movw	r30, r16
				// Setting next state for task
				tasks[i]->state = tasks[i]->TickFct(tasks[i]->state);
 9ac:	80 81       	ld	r24, Z
 9ae:	01 84       	ldd	r0, Z+9	; 0x09
 9b0:	f2 85       	ldd	r31, Z+10	; 0x0a
 9b2:	e0 2d       	mov	r30, r0
 9b4:	08 2e       	mov	r0, r24
 9b6:	00 0c       	add	r0, r0
 9b8:	99 0b       	sbc	r25, r25
 9ba:	09 95       	icall
 9bc:	d8 01       	movw	r26, r16
 9be:	8c 93       	st	X, r24
 9c0:	f8 01       	movw	r30, r16
				// Reset the elapsed time for next tick.
				tasks[i]->elapsedTime = 0;
 9c2:	15 82       	std	Z+5, r1	; 0x05
 9c4:	16 82       	std	Z+6, r1	; 0x06
 9c6:	17 82       	std	Z+7, r1	; 0x07
 9c8:	10 86       	std	Z+8, r1	; 0x08
 9ca:	f8 01       	movw	r30, r16
			}
			tasks[i]->elapsedTime += 1;
 9cc:	85 81       	ldd	r24, Z+5	; 0x05
 9ce:	96 81       	ldd	r25, Z+6	; 0x06
 9d0:	a7 81       	ldd	r26, Z+7	; 0x07
 9d2:	b0 85       	ldd	r27, Z+8	; 0x08
 9d4:	01 96       	adiw	r24, 0x01	; 1
 9d6:	a1 1d       	adc	r26, r1
 9d8:	b1 1d       	adc	r27, r1
 9da:	85 83       	std	Z+5, r24	; 0x05
 9dc:	96 83       	std	Z+6, r25	; 0x06
 9de:	a7 83       	std	Z+7, r26	; 0x07
 9e0:	b0 87       	std	Z+8, r27	; 0x08
 9e2:	ce 14       	cp	r12, r14
	TimerSet(1);
	TimerOn();
	unsigned short i;
	while(1) {
		A = ~PINA;
		for ( i = 0; i < 5; i++ ) {
 9e4:	df 04       	cpc	r13, r15
 9e6:	59 f6       	brne	.-106    	; 0x97e <main+0x124>
 9e8:	80 91 cd 01 	lds	r24, 0x01CD	; 0x8001cd <TimerFlag>
				// Reset the elapsed time for next tick.
				tasks[i]->elapsedTime = 0;
			}
			tasks[i]->elapsedTime += 1;
		}
		while(!TimerFlag);
 9ec:	88 23       	and	r24, r24
 9ee:	e1 f3       	breq	.-8      	; 0x9e8 <main+0x18e>
 9f0:	10 92 cd 01 	sts	0x01CD, r1	; 0x8001cd <TimerFlag>
		TimerFlag = 0;
 9f4:	bc cf       	rjmp	.-136    	; 0x96e <main+0x114>

000009f6 <__divmodhi4>:
	}
 9f6:	97 fb       	bst	r25, 7
 9f8:	07 2e       	mov	r0, r23
 9fa:	16 f4       	brtc	.+4      	; 0xa00 <__divmodhi4+0xa>
 9fc:	00 94       	com	r0
 9fe:	06 d0       	rcall	.+12     	; 0xa0c <__divmodhi4_neg1>
 a00:	77 fd       	sbrc	r23, 7
 a02:	08 d0       	rcall	.+16     	; 0xa14 <__divmodhi4_neg2>
 a04:	2d d0       	rcall	.+90     	; 0xa60 <__udivmodhi4>
 a06:	07 fc       	sbrc	r0, 7
 a08:	05 d0       	rcall	.+10     	; 0xa14 <__divmodhi4_neg2>
 a0a:	3e f4       	brtc	.+14     	; 0xa1a <__divmodhi4_exit>

00000a0c <__divmodhi4_neg1>:
 a0c:	90 95       	com	r25
 a0e:	81 95       	neg	r24
 a10:	9f 4f       	sbci	r25, 0xFF	; 255
 a12:	08 95       	ret

00000a14 <__divmodhi4_neg2>:
 a14:	70 95       	com	r23
 a16:	61 95       	neg	r22
 a18:	7f 4f       	sbci	r23, 0xFF	; 255

00000a1a <__divmodhi4_exit>:
 a1a:	08 95       	ret

00000a1c <__udivmodsi4>:
 a1c:	a1 e2       	ldi	r26, 0x21	; 33
 a1e:	1a 2e       	mov	r1, r26
 a20:	aa 1b       	sub	r26, r26
 a22:	bb 1b       	sub	r27, r27
 a24:	fd 01       	movw	r30, r26
 a26:	0d c0       	rjmp	.+26     	; 0xa42 <__udivmodsi4_ep>

00000a28 <__udivmodsi4_loop>:
 a28:	aa 1f       	adc	r26, r26
 a2a:	bb 1f       	adc	r27, r27
 a2c:	ee 1f       	adc	r30, r30
 a2e:	ff 1f       	adc	r31, r31
 a30:	a2 17       	cp	r26, r18
 a32:	b3 07       	cpc	r27, r19
 a34:	e4 07       	cpc	r30, r20
 a36:	f5 07       	cpc	r31, r21
 a38:	20 f0       	brcs	.+8      	; 0xa42 <__udivmodsi4_ep>
 a3a:	a2 1b       	sub	r26, r18
 a3c:	b3 0b       	sbc	r27, r19
 a3e:	e4 0b       	sbc	r30, r20
 a40:	f5 0b       	sbc	r31, r21

00000a42 <__udivmodsi4_ep>:
 a42:	66 1f       	adc	r22, r22
 a44:	77 1f       	adc	r23, r23
 a46:	88 1f       	adc	r24, r24
 a48:	99 1f       	adc	r25, r25
 a4a:	1a 94       	dec	r1
 a4c:	69 f7       	brne	.-38     	; 0xa28 <__udivmodsi4_loop>
 a4e:	60 95       	com	r22
 a50:	70 95       	com	r23
 a52:	80 95       	com	r24
 a54:	90 95       	com	r25
 a56:	9b 01       	movw	r18, r22
 a58:	ac 01       	movw	r20, r24
 a5a:	bd 01       	movw	r22, r26
 a5c:	cf 01       	movw	r24, r30
 a5e:	08 95       	ret

00000a60 <__udivmodhi4>:
 a60:	aa 1b       	sub	r26, r26
 a62:	bb 1b       	sub	r27, r27
 a64:	51 e1       	ldi	r21, 0x11	; 17
 a66:	07 c0       	rjmp	.+14     	; 0xa76 <__udivmodhi4_ep>

00000a68 <__udivmodhi4_loop>:
 a68:	aa 1f       	adc	r26, r26
 a6a:	bb 1f       	adc	r27, r27
 a6c:	a6 17       	cp	r26, r22
 a6e:	b7 07       	cpc	r27, r23
 a70:	10 f0       	brcs	.+4      	; 0xa76 <__udivmodhi4_ep>
 a72:	a6 1b       	sub	r26, r22
 a74:	b7 0b       	sbc	r27, r23

00000a76 <__udivmodhi4_ep>:
 a76:	88 1f       	adc	r24, r24
 a78:	99 1f       	adc	r25, r25
 a7a:	5a 95       	dec	r21
 a7c:	a9 f7       	brne	.-22     	; 0xa68 <__udivmodhi4_loop>
 a7e:	80 95       	com	r24
 a80:	90 95       	com	r25
 a82:	bc 01       	movw	r22, r24
 a84:	cd 01       	movw	r24, r26
 a86:	08 95       	ret

00000a88 <do_rand>:
 a88:	8f 92       	push	r8
 a8a:	9f 92       	push	r9
 a8c:	af 92       	push	r10
 a8e:	bf 92       	push	r11
 a90:	cf 92       	push	r12
 a92:	df 92       	push	r13
 a94:	ef 92       	push	r14
 a96:	ff 92       	push	r15
 a98:	cf 93       	push	r28
 a9a:	df 93       	push	r29
 a9c:	ec 01       	movw	r28, r24
 a9e:	68 81       	ld	r22, Y
 aa0:	79 81       	ldd	r23, Y+1	; 0x01
 aa2:	8a 81       	ldd	r24, Y+2	; 0x02
 aa4:	9b 81       	ldd	r25, Y+3	; 0x03
 aa6:	61 15       	cp	r22, r1
 aa8:	71 05       	cpc	r23, r1
 aaa:	81 05       	cpc	r24, r1
 aac:	91 05       	cpc	r25, r1
 aae:	21 f4       	brne	.+8      	; 0xab8 <do_rand+0x30>
 ab0:	64 e2       	ldi	r22, 0x24	; 36
 ab2:	79 ed       	ldi	r23, 0xD9	; 217
 ab4:	8b e5       	ldi	r24, 0x5B	; 91
 ab6:	97 e0       	ldi	r25, 0x07	; 7
 ab8:	2d e1       	ldi	r18, 0x1D	; 29
 aba:	33 ef       	ldi	r19, 0xF3	; 243
 abc:	41 e0       	ldi	r20, 0x01	; 1
 abe:	50 e0       	ldi	r21, 0x00	; 0
 ac0:	47 d0       	rcall	.+142    	; 0xb50 <__divmodsi4>
 ac2:	49 01       	movw	r8, r18
 ac4:	5a 01       	movw	r10, r20
 ac6:	9b 01       	movw	r18, r22
 ac8:	ac 01       	movw	r20, r24
 aca:	a7 ea       	ldi	r26, 0xA7	; 167
 acc:	b1 e4       	ldi	r27, 0x41	; 65
 ace:	5c d0       	rcall	.+184    	; 0xb88 <__muluhisi3>
 ad0:	6b 01       	movw	r12, r22
 ad2:	7c 01       	movw	r14, r24
 ad4:	ac ee       	ldi	r26, 0xEC	; 236
 ad6:	b4 ef       	ldi	r27, 0xF4	; 244
 ad8:	a5 01       	movw	r20, r10
 ada:	94 01       	movw	r18, r8
 adc:	61 d0       	rcall	.+194    	; 0xba0 <__mulohisi3>
 ade:	dc 01       	movw	r26, r24
 ae0:	cb 01       	movw	r24, r22
 ae2:	8c 0d       	add	r24, r12
 ae4:	9d 1d       	adc	r25, r13
 ae6:	ae 1d       	adc	r26, r14
 ae8:	bf 1d       	adc	r27, r15
 aea:	b7 ff       	sbrs	r27, 7
 aec:	03 c0       	rjmp	.+6      	; 0xaf4 <do_rand+0x6c>
 aee:	01 97       	sbiw	r24, 0x01	; 1
 af0:	a1 09       	sbc	r26, r1
 af2:	b0 48       	sbci	r27, 0x80	; 128
 af4:	88 83       	st	Y, r24
 af6:	99 83       	std	Y+1, r25	; 0x01
 af8:	aa 83       	std	Y+2, r26	; 0x02
 afa:	bb 83       	std	Y+3, r27	; 0x03
 afc:	9f 77       	andi	r25, 0x7F	; 127
 afe:	df 91       	pop	r29
 b00:	cf 91       	pop	r28
 b02:	ff 90       	pop	r15
 b04:	ef 90       	pop	r14
 b06:	df 90       	pop	r13
 b08:	cf 90       	pop	r12
 b0a:	bf 90       	pop	r11
 b0c:	af 90       	pop	r10
 b0e:	9f 90       	pop	r9
 b10:	8f 90       	pop	r8
 b12:	08 95       	ret

00000b14 <rand_r>:
 b14:	b9 cf       	rjmp	.-142    	; 0xa88 <do_rand>

00000b16 <rand>:
 b16:	80 e0       	ldi	r24, 0x00	; 0
 b18:	91 e0       	ldi	r25, 0x01	; 1
 b1a:	b6 cf       	rjmp	.-148    	; 0xa88 <do_rand>

00000b1c <srand>:
 b1c:	a0 e0       	ldi	r26, 0x00	; 0
 b1e:	b0 e0       	ldi	r27, 0x00	; 0
 b20:	80 93 00 01 	sts	0x0100, r24	; 0x800100 <__data_start>
 b24:	90 93 01 01 	sts	0x0101, r25	; 0x800101 <__data_start+0x1>
 b28:	a0 93 02 01 	sts	0x0102, r26	; 0x800102 <__data_start+0x2>
 b2c:	b0 93 03 01 	sts	0x0103, r27	; 0x800103 <__data_start+0x3>
 b30:	08 95       	ret

00000b32 <strncpy>:
 b32:	fb 01       	movw	r30, r22
 b34:	dc 01       	movw	r26, r24
 b36:	41 50       	subi	r20, 0x01	; 1
 b38:	50 40       	sbci	r21, 0x00	; 0
 b3a:	48 f0       	brcs	.+18     	; 0xb4e <strncpy+0x1c>
 b3c:	01 90       	ld	r0, Z+
 b3e:	0d 92       	st	X+, r0
 b40:	00 20       	and	r0, r0
 b42:	c9 f7       	brne	.-14     	; 0xb36 <strncpy+0x4>
 b44:	01 c0       	rjmp	.+2      	; 0xb48 <strncpy+0x16>
 b46:	1d 92       	st	X+, r1
 b48:	41 50       	subi	r20, 0x01	; 1
 b4a:	50 40       	sbci	r21, 0x00	; 0
 b4c:	e0 f7       	brcc	.-8      	; 0xb46 <strncpy+0x14>
 b4e:	08 95       	ret

00000b50 <__divmodsi4>:
 b50:	05 2e       	mov	r0, r21
 b52:	97 fb       	bst	r25, 7
 b54:	16 f4       	brtc	.+4      	; 0xb5a <__divmodsi4+0xa>
 b56:	00 94       	com	r0
 b58:	0f d0       	rcall	.+30     	; 0xb78 <__negsi2>
 b5a:	57 fd       	sbrc	r21, 7
 b5c:	05 d0       	rcall	.+10     	; 0xb68 <__divmodsi4_neg2>
 b5e:	5e df       	rcall	.-324    	; 0xa1c <__udivmodsi4>
 b60:	07 fc       	sbrc	r0, 7
 b62:	02 d0       	rcall	.+4      	; 0xb68 <__divmodsi4_neg2>
 b64:	46 f4       	brtc	.+16     	; 0xb76 <__divmodsi4_exit>
 b66:	08 c0       	rjmp	.+16     	; 0xb78 <__negsi2>

00000b68 <__divmodsi4_neg2>:
 b68:	50 95       	com	r21
 b6a:	40 95       	com	r20
 b6c:	30 95       	com	r19
 b6e:	21 95       	neg	r18
 b70:	3f 4f       	sbci	r19, 0xFF	; 255
 b72:	4f 4f       	sbci	r20, 0xFF	; 255
 b74:	5f 4f       	sbci	r21, 0xFF	; 255

00000b76 <__divmodsi4_exit>:
 b76:	08 95       	ret

00000b78 <__negsi2>:
 b78:	90 95       	com	r25
 b7a:	80 95       	com	r24
 b7c:	70 95       	com	r23
 b7e:	61 95       	neg	r22
 b80:	7f 4f       	sbci	r23, 0xFF	; 255
 b82:	8f 4f       	sbci	r24, 0xFF	; 255
 b84:	9f 4f       	sbci	r25, 0xFF	; 255
 b86:	08 95       	ret

00000b88 <__muluhisi3>:
 b88:	0f d0       	rcall	.+30     	; 0xba8 <__umulhisi3>
 b8a:	a5 9f       	mul	r26, r21
 b8c:	90 0d       	add	r25, r0
 b8e:	b4 9f       	mul	r27, r20
 b90:	90 0d       	add	r25, r0
 b92:	a4 9f       	mul	r26, r20
 b94:	80 0d       	add	r24, r0
 b96:	91 1d       	adc	r25, r1
 b98:	11 24       	eor	r1, r1
 b9a:	08 95       	ret

00000b9c <__mulshisi3>:
 b9c:	b7 ff       	sbrs	r27, 7
 b9e:	f4 cf       	rjmp	.-24     	; 0xb88 <__muluhisi3>

00000ba0 <__mulohisi3>:
 ba0:	f3 df       	rcall	.-26     	; 0xb88 <__muluhisi3>
 ba2:	82 1b       	sub	r24, r18
 ba4:	93 0b       	sbc	r25, r19
 ba6:	08 95       	ret

00000ba8 <__umulhisi3>:
 ba8:	a2 9f       	mul	r26, r18
 baa:	b0 01       	movw	r22, r0
 bac:	b3 9f       	mul	r27, r19
 bae:	c0 01       	movw	r24, r0
 bb0:	a3 9f       	mul	r26, r19
 bb2:	70 0d       	add	r23, r0
 bb4:	81 1d       	adc	r24, r1
 bb6:	11 24       	eor	r1, r1
 bb8:	91 1d       	adc	r25, r1
 bba:	b2 9f       	mul	r27, r18
 bbc:	70 0d       	add	r23, r0
 bbe:	81 1d       	adc	r24, r1
 bc0:	11 24       	eor	r1, r1
 bc2:	91 1d       	adc	r25, r1
 bc4:	08 95       	ret

00000bc6 <_exit>:
 bc6:	f8 94       	cli

00000bc8 <__stop_program>:
 bc8:	ff cf       	rjmp	.-2      	; 0xbc8 <__stop_program>
